target datalayout = "e-m:e-p270:32:32-p271:32:32-p272:64:64-i64:64-i128:128-f80:128-n8:16:32:64-S128"
target triple = "x86_64-pc-linux-gnu"

%struct._value_string_ext = type { ptr, i32, i32, ptr, ptr }
%struct._rtpstream_info = type { %struct._rtpstream_id, i8, ptr, [256 x ptr], ptr, i8, i32, i8, i32, i32, i32, ptr, ptr, %struct.nstime_t, %struct.nstime_t, %struct.nstime_t, i16, i8, i8, %struct._tap_rtp_stat_t, i8, ptr }
%struct._rtpstream_id = type { %struct._address, i16, %struct._address, i16, i32 }
%struct._address = type { i32, i32, ptr, ptr }
%struct.nstime_t = type { i64, i32 }
%struct._tap_rtp_stat_t = type { i8, i32, i16, i64, i64, double, [300 x %struct._bw_history_item], i16, i16, i32, i32, double, double, double, double, double, double, double, double, double, double, double, double, double, double, double, double, double, double, double, i32, i32, i32, i32, i32, i16, i32, i32, i32 }
%struct._bw_history_item = type { double, i32 }
%struct._rtp_info = type { i32, i8, i8, i32, i32, i16, i32, i32, i64, i32, i32, i8, i32, i32, i8, i32, ptr, ptr, i32, i32, ptr, i8, ptr, i8 }
%struct._packet_info = type { ptr, ptr, i32, i32, %struct.nstime_t, %struct.nstime_t, %struct.nstime_t, i8, ptr, ptr, ptr, ptr, %struct._address, %struct._address, %struct._address, %struct._address, %struct._address, %struct._address, i32, ptr, i8, [3 x i8], %struct.anon, i32, i32, i32, i32, ptr, i8, ptr, ptr, i16, i16, i32, i32, i16, i32, i32, ptr, ptr, ptr, i8, i8, i16, i16, i16, i32, i16, i16, ptr, ptr, ptr, ptr, ptr, i32, i32 }
%struct.anon = type { i8, [3 x i8] }
%struct._GString = type { ptr, i64, i64 }

@rtp_payload_type_short_vals_ext = external global %struct._value_string_ext, align 8
@PAYLOAD_UNKNOWN_STR = internal global ptr @.str.4, align 8
@.str.3 = private unnamed_addr constant [3 x i8] c", \00", align 1

; Function Attrs: null_pointer_is_valid sspstrong uwtable
define internal void @update_payload_names(ptr noundef %0, ptr noundef %1) #2 {
  %3 = alloca ptr, align 8
  %4 = alloca ptr, align 8
  %5 = alloca ptr, align 8
  %6 = alloca ptr, align 8
  %7 = alloca i32, align 4
  store ptr %0, ptr %3, align 8
  store ptr %1, ptr %4, align 8
  call void @llvm.lifetime.start.p0(i64 8, ptr %5) #17
  call void @llvm.lifetime.start.p0(i64 8, ptr %6) #17
  %8 = load ptr, ptr %4, align 8
  %9 = getelementptr inbounds nuw %struct._rtp_info, ptr %8, i32 0, i32 17
  %10 = load ptr, ptr %9, align 8
  %11 = icmp ne ptr %10, null
  br i1 %11, label %12, label %16

12:                                               ; preds = %2
  %13 = load ptr, ptr %4, align 8
  %14 = getelementptr inbounds nuw %struct._rtp_info, ptr %13, i32 0, i32 17
  %15 = load ptr, ptr %14, align 8
  store ptr %15, ptr %6, align 8
  br label %22

16:                                               ; preds = %2
  %17 = load ptr, ptr %4, align 8
  %18 = getelementptr inbounds nuw %struct._rtp_info, ptr %17, i32 0, i32 4
  %19 = load i32, ptr %18, align 4
  %20 = load ptr, ptr @PAYLOAD_UNKNOWN_STR, align 8
  %21 = call ptr @val_to_str_ext_const(i32 noundef %19, ptr noundef @rtp_payload_type_short_vals_ext, ptr noundef %20)
  store ptr %21, ptr %6, align 8
  br label %22

22:                                               ; preds = %16, %12
  %23 = load ptr, ptr %6, align 8
  %24 = load ptr, ptr %3, align 8
  %25 = getelementptr inbounds nuw %struct._rtpstream_info, ptr %24, i32 0, i32 3
  %26 = load ptr, ptr %4, align 8
  %27 = getelementptr inbounds nuw %struct._rtp_info, ptr %26, i32 0, i32 4
  %28 = load i32, ptr %27, align 4
  %29 = zext i32 %28 to i64
  %30 = getelementptr [256 x ptr], ptr %25, i64 0, i64 %29
  store ptr %23, ptr %30, align 8
  %31 = call ptr @g_string_sized_new(i64 noundef 40)
  store ptr %31, ptr %5, align 8
  call void @llvm.lifetime.start.p0(i64 4, ptr %7) #17
  store i32 0, ptr %7, align 4
  br label %32

32:                                               ; preds = %62, %22
  %33 = load i32, ptr %7, align 4
  %34 = icmp slt i32 %33, 256
  br i1 %34, label %36, label %35

35:                                               ; preds = %32
  call void @llvm.lifetime.end.p0(i64 4, ptr %7) #17
  br label %65

36:                                               ; preds = %32
  %37 = load ptr, ptr %3, align 8
  %38 = getelementptr inbounds nuw %struct._rtpstream_info, ptr %37, i32 0, i32 3
  %39 = load i32, ptr %7, align 4
  %40 = sext i32 %39 to i64
  %41 = getelementptr [256 x ptr], ptr %38, i64 0, i64 %40
  %42 = load ptr, ptr %41, align 8
  %43 = icmp ne ptr %42, null
  br i1 %43, label %44, label %61

44:                                               ; preds = %36
  %45 = load ptr, ptr %5, align 8
  %46 = getelementptr inbounds nuw %struct._GString, ptr %45, i32 0, i32 1
  %47 = load i64, ptr %46, align 8
  %48 = icmp ugt i64 %47, 0
  br i1 %48, label %49, label %52

49:                                               ; preds = %44
  %50 = load ptr, ptr %5, align 8
  %51 = call ptr @g_string_append(ptr noundef %50, ptr noundef @.str.3)
  br label %52

52:                                               ; preds = %49, %44
  %53 = load ptr, ptr %5, align 8
  %54 = load ptr, ptr %3, align 8
  %55 = getelementptr inbounds nuw %struct._rtpstream_info, ptr %54, i32 0, i32 3
  %56 = load i32, ptr %7, align 4
  %57 = sext i32 %56 to i64
  %58 = getelementptr [256 x ptr], ptr %55, i64 0, i64 %57
  %59 = load ptr, ptr %58, align 8
  %60 = call ptr @g_string_append(ptr noundef %53, ptr noundef %59)
  br label %61

61:                                               ; preds = %52, %36
  br label %62

62:                                               ; preds = %61
  %63 = load i32, ptr %7, align 4
  %64 = add i32 %63, 1
  store i32 %64, ptr %7, align 4
  br label %32, !llvm.loop !15

65:                                               ; preds = %35
  %66 = load ptr, ptr %3, align 8
  %67 = getelementptr inbounds nuw %struct._rtpstream_info, ptr %66, i32 0, i32 4
  %68 = load ptr, ptr %67, align 8
  %69 = icmp ne ptr %68, null
  br i1 %69, label %70, label %74

70:                                               ; preds = %65
  %71 = load ptr, ptr %3, align 8
  %72 = getelementptr inbounds nuw %struct._rtpstream_info, ptr %71, i32 0, i32 4
  %73 = load ptr, ptr %72, align 8
  call void @g_free(ptr noundef %73)
  br label %74

74:                                               ; preds = %70, %65
  %75 = load ptr, ptr %5, align 8
  %76 = call ptr @g_string_free(ptr noundef %75, i32 noundef 0)
  %77 = load ptr, ptr %3, align 8
  %78 = getelementptr inbounds nuw %struct._rtpstream_info, ptr %77, i32 0, i32 4
  store ptr %76, ptr %78, align 8
  call void @llvm.lifetime.end.p0(i64 8, ptr %6) #17
  call void @llvm.lifetime.end.p0(i64 8, ptr %5) #17
  ret void
}

; Function Attrs: null_pointer_is_valid sspstrong uwtable
define hidden void @rtpstream_info_analyse_process(ptr noundef %0, ptr noundef %1, ptr noundef %2) #2 {
  %4 = alloca ptr, align 8
  %5 = alloca ptr, align 8
  %6 = alloca ptr, align 8
  store ptr %0, ptr %4, align 8
  store ptr %1, ptr %5, align 8
  store ptr %2, ptr %6, align 8
  %7 = load ptr, ptr %4, align 8
  %8 = getelementptr inbounds nuw %struct._rtpstream_info, ptr %7, i32 0, i32 19
  %9 = load ptr, ptr %5, align 8
  %10 = load ptr, ptr %6, align 8
  call void @rtppacket_analyse(ptr noundef %8, ptr noundef %9, ptr noundef %10)
  %11 = load ptr, ptr %4, align 8
  %12 = getelementptr inbounds nuw %struct._rtpstream_info, ptr %11, i32 0, i32 3
  %13 = load ptr, ptr %6, align 8
  %14 = getelementptr inbounds nuw %struct._rtp_info, ptr %13, i32 0, i32 4
  %15 = load i32, ptr %14, align 4
  %16 = zext i32 %15 to i64
  %17 = getelementptr [256 x ptr], ptr %12, i64 0, i64 %16
  %18 = load ptr, ptr %17, align 8
  %19 = icmp eq ptr %18, null
  br i1 %19, label %20, label %23

20:                                               ; preds = %3
  %21 = load ptr, ptr %4, align 8
  %22 = load ptr, ptr %6, align 8
  call void @update_payload_names(ptr noundef %21, ptr noundef %22)
  br label %23

23:                                               ; preds = %20, %3
  %24 = load ptr, ptr %4, align 8
  %25 = getelementptr inbounds nuw %struct._rtpstream_info, ptr %24, i32 0, i32 19
  %26 = getelementptr inbounds nuw %struct._tap_rtp_stat_t, ptr %25, i32 0, i32 1
  %27 = load i32, ptr %26, align 4
  %28 = and i32 %27, 128
  %29 = icmp ne i32 %28, 0
  br i1 %29, label %37, label %30

30:                                               ; preds = %23
  %31 = load ptr, ptr %4, align 8
  %32 = getelementptr inbounds nuw %struct._rtpstream_info, ptr %31, i32 0, i32 19
  %33 = getelementptr inbounds nuw %struct._tap_rtp_stat_t, ptr %32, i32 0, i32 1
  %34 = load i32, ptr %33, align 4
  %35 = and i32 %34, 4
  %36 = icmp ne i32 %35, 0
  br i1 %36, label %37, label %40

37:                                               ; preds = %30, %23
  %38 = load ptr, ptr %4, align 8
  %39 = getelementptr inbounds nuw %struct._rtpstream_info, ptr %38, i32 0, i32 20
  store i8 1, ptr %39, align 8
  br label %40

40:                                               ; preds = %37, %30
  %41 = load ptr, ptr %4, align 8
  %42 = getelementptr inbounds nuw %struct._rtpstream_info, ptr %41, i32 0, i32 6
  %43 = load i32, ptr %42, align 4
  %44 = add i32 %43, 1
  store i32 %44, ptr %42, align 4
  %45 = load ptr, ptr %4, align 8
  %46 = getelementptr inbounds nuw %struct._rtpstream_info, ptr %45, i32 0, i32 14
  %47 = load ptr, ptr %5, align 8
  %48 = getelementptr inbounds nuw %struct._packet_info, ptr %47, i32 0, i32 5
  call void @llvm.memcpy.p0.p0.i64(ptr align 8 %46, ptr align 8 %48, i64 16, i1 false)
  ret void
}