; Function Attrs: null_pointer_is_valid sspstrong uwtable
define hidden void @rtpstream_info_analyse_process(ptr noundef %0, ptr noundef %1, ptr noundef %2) local_unnamed_addr #1 {
  %4 = getelementptr inbounds nuw i8, ptr %0, i64 2232
  tail call void @rtppacket_analyse(ptr noundef nonnull %4, ptr noundef %1, ptr noundef %2)
  %5 = getelementptr inbounds nuw i8, ptr %0, i64 80
  %6 = getelementptr inbounds nuw i8, ptr %2, i64 12
  %7 = load i32, ptr %6, align 4
  %8 = zext i32 %7 to i64
  %9 = getelementptr [256 x ptr], ptr %5, i64 0, i64 %8
  %10 = load ptr, ptr %9, align 8
  %11 = icmp eq ptr %10, null
  br i1 %11, label %12, label %37

12:                                               ; preds = %3
  %13 = getelementptr inbounds nuw i8, ptr %2, i64 80
  %14 = load ptr, ptr %13, align 8
  %.not.i = icmp eq ptr %14, null
  br i1 %.not.i, label %15, label %17

15:                                               ; preds = %12
  %16 = tail call ptr @val_to_str_ext_const(i32 noundef %7, ptr noundef nonnull @rtp_payload_type_short_vals_ext, ptr noundef nonnull @.str.4)
  %.pre = load i32, ptr %6, align 4
  %.pre14 = zext i32 %.pre to i64
  br label %17

17:                                               ; preds = %15, %12
  %.pre-phi = phi i64 [ %.pre14, %15 ], [ %8, %12 ]
  %.018.i = phi ptr [ %16, %15 ], [ %14, %12 ]
  %18 = getelementptr [256 x ptr], ptr %5, i64 0, i64 %.pre-phi
  store ptr %.018.i, ptr %18, align 8
  %19 = tail call ptr @g_string_sized_new(i64 noundef 40)
  %20 = getelementptr inbounds nuw i8, ptr %19, i64 8
  br label %24

21:                                               ; preds = %34
  %22 = getelementptr inbounds nuw i8, ptr %0, i64 2128
  %23 = load ptr, ptr %22, align 8
  %.not21.i = icmp eq ptr %23, null
  br i1 %.not21.i, label %update_payload_names.exit, label %35

24:                                               ; preds = %34, %17
  %indvars.iv.i = phi i64 [ 0, %17 ], [ %indvars.iv.next.i, %34 ]
  %25 = getelementptr [256 x ptr], ptr %5, i64 0, i64 %indvars.iv.i
  %26 = load ptr, ptr %25, align 8
  %.not22.i = icmp eq ptr %26, null
  br i1 %.not22.i, label %34, label %27

27:                                               ; preds = %24
  %28 = load i64, ptr %20, align 8
  %.not23.i = icmp eq i64 %28, 0
  br i1 %.not23.i, label %31, label %29

29:                                               ; preds = %27
  %30 = tail call ptr @g_string_append(ptr noundef %19, ptr noundef nonnull @.str.3)
  %.pre.i = load ptr, ptr %25, align 8
  br label %31

31:                                               ; preds = %29, %27
  %32 = phi ptr [ %.pre.i, %29 ], [ %26, %27 ]
  %33 = tail call ptr @g_string_append(ptr noundef %19, ptr noundef %32)
  br label %34

34:                                               ; preds = %31, %24
  %indvars.iv.next.i = add nuw nsw i64 %indvars.iv.i, 1
  %exitcond.not.i = icmp eq i64 %indvars.iv.next.i, 256
  br i1 %exitcond.not.i, label %21, label %24, !llvm.loop !19

35:                                               ; preds = %21
  tail call void @g_free(ptr noundef nonnull %23)
  br label %update_payload_names.exit

update_payload_names.exit:                        ; preds = %21, %35
  %36 = tail call ptr @g_string_free(ptr noundef %19, i32 noundef 0)
  store ptr %36, ptr %22, align 8
  br label %37

37:                                               ; preds = %update_payload_names.exit, %3
  %38 = getelementptr inbounds nuw i8, ptr %0, i64 2236
  %39 = load i32, ptr %38, align 4
  %40 = and i32 %39, 132
  %or.cond = icmp eq i32 %40, 0
  br i1 %or.cond, label %43, label %41

41:                                               ; preds = %37
  %42 = getelementptr inbounds nuw i8, ptr %0, i64 7280
  store i8 1, ptr %42, align 8
  br label %43

43:                                               ; preds = %37, %41
  %44 = getelementptr inbounds nuw i8, ptr %0, i64 2140
  %45 = load i32, ptr %44, align 4
  %46 = add i32 %45, 1
  store i32 %46, ptr %44, align 4
  %47 = getelementptr inbounds nuw i8, ptr %0, i64 2192
  %48 = getelementptr inbounds nuw i8, ptr %1, i64 40
  tail call void @llvm.memcpy.p0.p0.i64(ptr noundef nonnull align 8 dereferenceable(16) %47, ptr noundef nonnull align 8 dereferenceable(16) %48, i64 16, i1 false)
  ret void
}